target datalayout = "e-m:e-p270:32:32-p271:32:32-p272:64:64-i64:64-i128:128-f80:128-n8:16:32:64-S128"
target triple = "x86_64-pc-linux-gnu"

%"class.std::__cxx11::basic_string" = type { %"struct.std::__cxx11::basic_string<char>::_Alloc_hider", i64, %union.anon }
%"struct.std::__cxx11::basic_string<char>::_Alloc_hider" = type { ptr }
%union.anon = type { i64, [8 x i8] }
%"struct.faiss::IndexAdditiveQuantizer" = type { %"struct.faiss::IndexFlatCodes", ptr }
%"struct.faiss::IndexFlatCodes" = type { %"struct.faiss::Index.base", i64, %"class.std::vector" }
%"struct.faiss::Index.base" = type <{ ptr, i32, [4 x i8], i64, i8, i8, [2 x i8], i32, float }>
%"class.std::vector" = type { %"struct.std::_Vector_base" }
%"struct.std::_Vector_base" = type { %"struct.std::_Vector_base<unsigned char, std::allocator<unsigned char>>::_Vector_impl" }
%"struct.std::_Vector_base<unsigned char, std::allocator<unsigned char>>::_Vector_impl" = type { %"struct.std::_Vector_base<unsigned char, std::allocator<unsigned char>>::_Vector_impl_data" }
%"struct.std::_Vector_base<unsigned char, std::allocator<unsigned char>>::_Vector_impl_data" = type { ptr, ptr, ptr }
%"struct.faiss::Quantizer" = type { ptr, i64, i64 }
%"class.std::vector.0" = type { %"struct.std::_Vector_base.1" }
%"struct.std::_Vector_base.1" = type { %"struct.std::_Vector_base<unsigned long, std::allocator<unsigned long>>::_Vector_impl" }
%"struct.std::_Vector_base<unsigned long, std::allocator<unsigned long>>::_Vector_impl" = type { %"struct.std::_Vector_base<unsigned long, std::allocator<unsigned long>>::_Vector_impl_data" }
%"struct.std::_Vector_base<unsigned long, std::allocator<unsigned long>>::_Vector_impl_data" = type { ptr, ptr, ptr }
%"struct.faiss::IndexFlat1D" = type { %"struct.faiss::IndexFlatL2", i8, %"class.std::vector.10" }
%"struct.faiss::IndexFlatL2" = type { %"struct.faiss::IndexFlat", %"class.std::vector.5" }
%"struct.faiss::IndexFlat" = type { %"struct.faiss::IndexFlatCodes" }
%"class.std::vector.10" = type { %"struct.std::_Vector_base.11" }
%"struct.std::_Vector_base.11" = type { %"struct.std::_Vector_base<long, std::allocator<long>>::_Vector_impl" }
%"struct.std::_Vector_base<long, std::allocator<long>>::_Vector_impl" = type { %"struct.std::_Vector_base<long, std::allocator<long>>::_Vector_impl_data" }
%"struct.std::_Vector_base<long, std::allocator<long>>::_Vector_impl_data" = type { ptr, ptr, ptr }
%"class.std::vector.5" = type { %"struct.std::_Vector_base.6" }
%"struct.std::_Vector_base.6" = type { %"struct.std::_Vector_base<float, std::allocator<float>>::_Vector_impl" }
%"struct.std::_Vector_base<float, std::allocator<float>>::_Vector_impl" = type { %"struct.std::_Vector_base<float, std::allocator<float>>::_Vector_impl_data" }
%"struct.std::_Vector_base<float, std::allocator<float>>::_Vector_impl_data" = type { ptr, ptr, ptr }
%"struct.faiss::Index" = type <{ ptr, i32, [4 x i8], i64, i8, i8, [2 x i8], i32, float, [4 x i8] }>
%"struct.faiss::AdditiveQuantizer.base" = type <{ %"struct.faiss::Quantizer", i64, %"class.std::vector.0", %"class.std::vector.5", %"class.std::vector.0", i64, i64, i64, i8, i8, i8, [5 x i8], %"struct.faiss::IndexFlat1D", %"class.std::vector.5", i64, i32, float, float }>
%"struct.faiss::ProductAdditiveQuantizer" = type { %"struct.faiss::AdditiveQuantizer.base", i64, %"class.std::vector.38" }
%"class.std::vector.38" = type { %"struct.std::_Vector_base.39" }
%"struct.std::_Vector_base.39" = type { %"struct.std::_Vector_base<faiss::AdditiveQuantizer *, std::allocator<faiss::AdditiveQuantizer *>>::_Vector_impl" }
%"struct.std::_Vector_base<faiss::AdditiveQuantizer *, std::allocator<faiss::AdditiveQuantizer *>>::_Vector_impl" = type { %"struct.std::_Vector_base<faiss::AdditiveQuantizer *, std::allocator<faiss::AdditiveQuantizer *>>::_Vector_impl_data" }
%"struct.std::_Vector_base<faiss::AdditiveQuantizer *, std::allocator<faiss::AdditiveQuantizer *>>::_Vector_impl_data" = type { ptr, ptr, ptr }
%"struct.faiss::IndexProductLocalSearchQuantizer" = type { %"struct.faiss::IndexAdditiveQuantizer", %"struct.faiss::ProductLocalSearchQuantizer" }
%"struct.faiss::ProductLocalSearchQuantizer" = type { %"struct.faiss::ProductAdditiveQuantizer" }

@.str = private unnamed_addr constant [19 x i8] c"Error: '%s' failed\00", align 1
@.str.1 = private unnamed_addr constant [54 x i8] c"metric == METRIC_INNER_PRODUCT || metric == METRIC_L2\00", align 1
@__PRETTY_FUNCTION__._ZN5faiss22IndexAdditiveQuantizerC2ElPNS_17AdditiveQuantizerENS_10MetricTypeE = private unnamed_addr constant [94 x i8] c"faiss::IndexAdditiveQuantizer::IndexAdditiveQuantizer(idx_t, AdditiveQuantizer *, MetricType)\00", align 1
@.str.2 = private unnamed_addr constant [122 x i8] c"generated/home/dtcxzyw/WorkSpace/Projects/compilers/llvm-opt-benchmark/bench/faiss/faiss/faiss/IndexAdditiveQuantizer.cpp\00", align 1
@_ZTIN5faiss14FaissExceptionE = external constant ptr
@_ZTVN5faiss14IndexFlatCodesE = external unnamed_addr constant { [25 x ptr] }, align 8

; Function Attrs: mustprogress nounwind uwtable
define linkonce_odr void @_ZNSt15__new_allocatorIhED2Ev(ptr noundef nonnull align 1 dereferenceable(1) %0) unnamed_addr #0 comdat align 2 {
  %2 = alloca ptr, align 8
  store ptr %0, ptr %2, align 8
  ret void
}

; Function Attrs: mustprogress nounwind uwtable
define linkonce_odr void @_ZNSt15__new_allocatorIhE10deallocateEPhm(ptr noundef nonnull align 1 dereferenceable(1) %0, ptr noundef %1, i64 noundef %2) #0 comdat align 2 {
  %4 = alloca ptr, align 8
  %5 = alloca ptr, align 8
  %6 = alloca i64, align 8
  store ptr %0, ptr %4, align 8
  store ptr %1, ptr %5, align 8
  store i64 %2, ptr %6, align 8
  %7 = load ptr, ptr %5, align 8
  call void @_ZdlPv(ptr noundef %7) #14
  ret void
}

; Function Attrs: mustprogress nounwind uwtable
define linkonce_odr void @_ZNSaIhED2Ev(ptr noundef nonnull align 1 dereferenceable(1) %0) unnamed_addr #0 comdat align 2 {
  %2 = alloca ptr, align 8
  store ptr %0, ptr %2, align 8
  %3 = load ptr, ptr %2, align 8
  call void @_ZNSt15__new_allocatorIhED2Ev(ptr noundef nonnull align 1 dereferenceable(1) %3) #11
  ret void
}

; Function Attrs: mustprogress uwtable
define linkonce_odr void @_ZNSt16allocator_traitsISaIhEE10deallocateERS0_Phm(ptr noundef nonnull align 1 dereferenceable(1) %0, ptr noundef %1, i64 noundef %2) #2 comdat align 2 {
  %4 = alloca ptr, align 8
  %5 = alloca ptr, align 8
  %6 = alloca i64, align 8
  store ptr %0, ptr %4, align 8
  store ptr %1, ptr %5, align 8
  store i64 %2, ptr %6, align 8
  %7 = load ptr, ptr %4, align 8
  %8 = load ptr, ptr %5, align 8
  %9 = load i64, ptr %6, align 8
  call void @_ZNSt15__new_allocatorIhE10deallocateEPhm(ptr noundef nonnull align 1 dereferenceable(1) %7, ptr noundef %8, i64 noundef %9)
  ret void
}

; Function Attrs: mustprogress nounwind uwtable
define linkonce_odr void @_ZNSt12_Destroy_auxILb1EE9__destroyIPhEEvT_S3_(ptr noundef %0, ptr noundef %1) #0 comdat align 2 {
  %3 = alloca ptr, align 8
  %4 = alloca ptr, align 8
  store ptr %0, ptr %3, align 8
  store ptr %1, ptr %4, align 8
  ret void
}

; Function Attrs: mustprogress nounwind uwtable
define linkonce_odr void @_ZNSt12_Vector_baseIhSaIhEE12_Vector_implD2Ev(ptr noundef nonnull align 8 dereferenceable(24) %0) unnamed_addr #0 comdat align 2 {
  %2 = alloca ptr, align 8
  store ptr %0, ptr %2, align 8
  %3 = load ptr, ptr %2, align 8
  call void @_ZNSaIhED2Ev(ptr noundef nonnull align 1 dereferenceable(1) %3) #11
  ret void
}

; Function Attrs: mustprogress uwtable
define linkonce_odr void @_ZNSt12_Vector_baseIhSaIhEE13_M_deallocateEPhm(ptr noundef nonnull align 8 dereferenceable(24) %0, ptr noundef %1, i64 noundef %2) #2 comdat align 2 {
  %4 = alloca ptr, align 8
  %5 = alloca ptr, align 8
  %6 = alloca i64, align 8
  store ptr %0, ptr %4, align 8
  store ptr %1, ptr %5, align 8
  store i64 %2, ptr %6, align 8
  %7 = load ptr, ptr %4, align 8
  %8 = load ptr, ptr %5, align 8
  %9 = icmp ne ptr %8, null
  br i1 %9, label %10, label %14

10:                                               ; preds = %3
  %11 = getelementptr inbounds %"struct.std::_Vector_base", ptr %7, i32 0, i32 0
  %12 = load ptr, ptr %5, align 8
  %13 = load i64, ptr %6, align 8
  call void @_ZNSt16allocator_traitsISaIhEE10deallocateERS0_Phm(ptr noundef nonnull align 1 dereferenceable(1) %11, ptr noundef %12, i64 noundef %13)
  br label %14

14:                                               ; preds = %10, %3
  ret void
}

; Function Attrs: mustprogress uwtable
define linkonce_odr void @_ZSt8_DestroyIPhEvT_S1_(ptr noundef %0, ptr noundef %1) #2 comdat {
  %3 = alloca ptr, align 8
  %4 = alloca ptr, align 8
  store ptr %0, ptr %3, align 8
  store ptr %1, ptr %4, align 8
  %5 = load ptr, ptr %3, align 8
  %6 = load ptr, ptr %4, align 8
  call void @_ZNSt12_Destroy_auxILb1EE9__destroyIPhEEvT_S3_(ptr noundef %5, ptr noundef %6)
  ret void
}

; Function Attrs: noreturn nounwind uwtable
define linkonce_odr hidden void @__clang_call_terminate(ptr noundef %0) #4 comdat {
  %2 = call ptr @__cxa_begin_catch(ptr %0) #11
  call void @_ZSt9terminatev() #17
  unreachable
}

; Function Attrs: mustprogress nounwind uwtable
define linkonce_odr void @_ZNSt12_Vector_baseIhSaIhEED2Ev(ptr noundef nonnull align 8 dereferenceable(24) %0) unnamed_addr #0 comdat align 2 personality ptr @__gxx_personality_v0 {
  %2 = alloca ptr, align 8
  store ptr %0, ptr %2, align 8
  %3 = load ptr, ptr %2, align 8
  %4 = getelementptr inbounds %"struct.std::_Vector_base", ptr %3, i32 0, i32 0
  %5 = getelementptr inbounds %"struct.std::_Vector_base<unsigned char, std::allocator<unsigned char>>::_Vector_impl_data", ptr %4, i32 0, i32 0
  %6 = load ptr, ptr %5, align 8
  %7 = getelementptr inbounds %"struct.std::_Vector_base", ptr %3, i32 0, i32 0
  %8 = getelementptr inbounds %"struct.std::_Vector_base<unsigned char, std::allocator<unsigned char>>::_Vector_impl_data", ptr %7, i32 0, i32 2
  %9 = load ptr, ptr %8, align 8
  %10 = getelementptr inbounds %"struct.std::_Vector_base", ptr %3, i32 0, i32 0
  %11 = getelementptr inbounds %"struct.std::_Vector_base<unsigned char, std::allocator<unsigned char>>::_Vector_impl_data", ptr %10, i32 0, i32 0
  %12 = load ptr, ptr %11, align 8
  %13 = ptrtoint ptr %9 to i64
  %14 = ptrtoint ptr %12 to i64
  %15 = sub i64 %13, %14
  invoke void @_ZNSt12_Vector_baseIhSaIhEE13_M_deallocateEPhm(ptr noundef nonnull align 8 dereferenceable(24) %3, ptr noundef %6, i64 noundef %15)
          to label %16 unwind label %18

16:                                               ; preds = %1
  %17 = getelementptr inbounds %"struct.std::_Vector_base", ptr %3, i32 0, i32 0
  call void @_ZNSt12_Vector_baseIhSaIhEE12_Vector_implD2Ev(ptr noundef nonnull align 8 dereferenceable(24) %17) #11
  ret void

18:                                               ; preds = %1
  %19 = landingpad { ptr, i32 }
          catch ptr null
  %20 = extractvalue { ptr, i32 } %19, 0
  call void @__clang_call_terminate(ptr %20) #17
  unreachable
}

; Function Attrs: mustprogress uwtable
define linkonce_odr void @_ZSt8_DestroyIPhhEvT_S1_RSaIT0_E(ptr noundef %0, ptr noundef %1, ptr noundef nonnull align 1 dereferenceable(1) %2) #2 comdat {
  %4 = alloca ptr, align 8
  %5 = alloca ptr, align 8
  %6 = alloca ptr, align 8
  store ptr %0, ptr %4, align 8
  store ptr %1, ptr %5, align 8
  store ptr %2, ptr %6, align 8
  %7 = load ptr, ptr %4, align 8
  %8 = load ptr, ptr %5, align 8
  call void @_ZSt8_DestroyIPhEvT_S1_(ptr noundef %7, ptr noundef %8)
  ret void
}

; Function Attrs: mustprogress nounwind uwtable
define linkonce_odr noundef nonnull align 1 dereferenceable(1) ptr @_ZNSt12_Vector_baseIhSaIhEE19_M_get_Tp_allocatorEv(ptr noundef nonnull align 8 dereferenceable(24) %0) #0 comdat align 2 {
  %2 = alloca ptr, align 8
  store ptr %0, ptr %2, align 8
  %3 = load ptr, ptr %2, align 8
  %4 = getelementptr inbounds %"struct.std::_Vector_base", ptr %3, i32 0, i32 0
  ret ptr %4
}

; Function Attrs: mustprogress nounwind uwtable
define linkonce_odr void @_ZNSt6vectorIhSaIhEED2Ev(ptr noundef nonnull align 8 dereferenceable(24) %0) unnamed_addr #0 comdat align 2 personality ptr @__gxx_personality_v0 {
  %2 = alloca ptr, align 8
  store ptr %0, ptr %2, align 8
  %3 = load ptr, ptr %2, align 8
  %4 = getelementptr inbounds %"struct.std::_Vector_base", ptr %3, i32 0, i32 0
  %5 = getelementptr inbounds %"struct.std::_Vector_base<unsigned char, std::allocator<unsigned char>>::_Vector_impl_data", ptr %4, i32 0, i32 0
  %6 = load ptr, ptr %5, align 8
  %7 = getelementptr inbounds %"struct.std::_Vector_base", ptr %3, i32 0, i32 0
  %8 = getelementptr inbounds %"struct.std::_Vector_base<unsigned char, std::allocator<unsigned char>>::_Vector_impl_data", ptr %7, i32 0, i32 1
  %9 = load ptr, ptr %8, align 8
  %10 = call noundef nonnull align 1 dereferenceable(1) ptr @_ZNSt12_Vector_baseIhSaIhEE19_M_get_Tp_allocatorEv(ptr noundef nonnull align 8 dereferenceable(24) %3) #11
  invoke void @_ZSt8_DestroyIPhhEvT_S1_RSaIT0_E(ptr noundef %6, ptr noundef %9, ptr noundef nonnull align 1 dereferenceable(1) %10)
          to label %11 unwind label %12

11:                                               ; preds = %1
  call void @_ZNSt12_Vector_baseIhSaIhEED2Ev(ptr noundef nonnull align 8 dereferenceable(24) %3) #11
  ret void

12:                                               ; preds = %1
  %13 = landingpad { ptr, i32 }
          catch ptr null
  %14 = extractvalue { ptr, i32 } %13, 0
  call void @__clang_call_terminate(ptr %14) #17
  unreachable
}

; Function Attrs: mustprogress nounwind uwtable
define linkonce_odr void @_ZN5faiss14IndexFlatCodesD2Ev(ptr noundef nonnull align 8 dereferenceable(72) %0) unnamed_addr #0 comdat align 2 {
  %2 = alloca ptr, align 8
  store ptr %0, ptr %2, align 8
  %3 = load ptr, ptr %2, align 8
  store ptr getelementptr inbounds ({ [25 x ptr] }, ptr @_ZTVN5faiss14IndexFlatCodesE, i32 0, i32 0, i32 2), ptr %3, align 8
  %4 = getelementptr inbounds %"struct.faiss::IndexFlatCodes", ptr %3, i32 0, i32 2
  call void @_ZNSt6vectorIhSaIhEED2Ev(ptr noundef nonnull align 8 dereferenceable(24) %4) #11
  call void @_ZN5faiss5IndexD2Ev(ptr noundef nonnull align 8 dereferenceable(36) %3) #11
  ret void
}

; Function Attrs: mustprogress uwtable
define void @_ZN5faiss22IndexAdditiveQuantizerC2ElPNS_17AdditiveQuantizerENS_10MetricTypeE(ptr noundef nonnull align 8 dereferenceable(80) %0, i64 noundef %1, ptr noundef %2, i32 noundef %3) unnamed_addr #2 align 2 personality ptr @__gxx_personality_v0 {
  %5 = alloca ptr, align 8
  %6 = alloca i64, align 8
  %7 = alloca ptr, align 8
  %8 = alloca i32, align 4
  %9 = alloca %"class.std::__cxx11::basic_string", align 8
  %10 = alloca i32, align 4
  %11 = alloca ptr, align 8
  %12 = alloca i32, align 4
  store ptr %0, ptr %5, align 8
  store i64 %1, ptr %6, align 8
  store ptr %2, ptr %7, align 8
  store i32 %3, ptr %8, align 4
  %13 = load ptr, ptr %5, align 8
  %14 = load ptr, ptr %7, align 8
  %15 = getelementptr inbounds %"struct.faiss::Quantizer", ptr %14, i32 0, i32 2
  %16 = load i64, ptr %15, align 8
  %17 = load i64, ptr %6, align 8
  %18 = load i32, ptr %8, align 4
  call void @_ZN5faiss14IndexFlatCodesC2EmlNS_10MetricTypeE(ptr noundef nonnull align 8 dereferenceable(72) %13, i64 noundef %16, i64 noundef %17, i32 noundef %18)
  store ptr getelementptr inbounds ({ [25 x ptr] }, ptr @_ZTVN5faiss22IndexAdditiveQuantizerE, i32 0, i32 0, i32 2), ptr %13, align 8
  %19 = getelementptr inbounds %"struct.faiss::IndexAdditiveQuantizer", ptr %13, i32 0, i32 1
  %20 = load ptr, ptr %7, align 8
  store ptr %20, ptr %19, align 8
  br label %21

21:                                               ; preds = %4
  %22 = load i32, ptr %8, align 4
  %23 = icmp eq i32 %22, 0
  br i1 %23, label %51, label %24

24:                                               ; preds = %21
  %25 = load i32, ptr %8, align 4
  %26 = icmp eq i32 %25, 1
  br i1 %26, label %51, label %27

27:                                               ; preds = %24
  br label %28

28:                                               ; preds = %27
  call void @_ZNSt7__cxx1112basic_stringIcSt11char_traitsIcESaIcEEC1Ev(ptr noundef nonnull align 8 dereferenceable(32) %9) #11
  %29 = call i32 (ptr, i64, ptr, ...) @snprintf(ptr noundef null, i64 noundef 0, ptr noundef @.str, ptr noundef @.str.1) #11
  store i32 %29, ptr %10, align 4
  %30 = load i32, ptr %10, align 4
  %31 = add nsw i32 %30, 1
  %32 = sext i32 %31 to i64
  invoke void @_ZNSt7__cxx1112basic_stringIcSt11char_traitsIcESaIcEE6resizeEm(ptr noundef nonnull align 8 dereferenceable(32) %9, i64 noundef %32)
          to label %33 unwind label %40

33:                                               ; preds = %28
  %34 = invoke noundef nonnull align 1 dereferenceable(1) ptr @_ZNSt7__cxx1112basic_stringIcSt11char_traitsIcESaIcEEixEm(ptr noundef nonnull align 8 dereferenceable(32) %9, i64 noundef 0)
          to label %35 unwind label %40

35:                                               ; preds = %33
  %36 = call noundef i64 @_ZNKSt7__cxx1112basic_stringIcSt11char_traitsIcESaIcEE4sizeEv(ptr noundef nonnull align 8 dereferenceable(32) %9) #11
  %37 = call i32 (ptr, i64, ptr, ...) @snprintf(ptr noundef %34, i64 noundef %36, ptr noundef @.str, ptr noundef @.str.1) #11
  %38 = call ptr @__cxa_allocate_exception(i64 40) #11
  invoke void @_ZN5faiss14FaissExceptionC1ERKNSt7__cxx1112basic_stringIcSt11char_traitsIcESaIcEEEPKcSA_i(ptr noundef nonnull align 8 dereferenceable(40) %38, ptr noundef nonnull align 8 dereferenceable(32) %9, ptr noundef @__PRETTY_FUNCTION__._ZN5faiss22IndexAdditiveQuantizerC2ElPNS_17AdditiveQuantizerENS_10MetricTypeE, ptr noundef @.str.2, i32 noundef 32)
          to label %39 unwind label %44

39:                                               ; preds = %35
  invoke void @__cxa_throw(ptr %38, ptr @_ZTIN5faiss14FaissExceptionE, ptr @_ZN5faiss14FaissExceptionD2Ev) #15
          to label %59 unwind label %40

40:                                               ; preds = %39, %33, %28
  %41 = landingpad { ptr, i32 }
          cleanup
  %42 = extractvalue { ptr, i32 } %41, 0
  store ptr %42, ptr %11, align 8
  %43 = extractvalue { ptr, i32 } %41, 1
  store i32 %43, ptr %12, align 4
  br label %48

44:                                               ; preds = %35
  %45 = landingpad { ptr, i32 }
          cleanup
  %46 = extractvalue { ptr, i32 } %45, 0
  store ptr %46, ptr %11, align 8
  %47 = extractvalue { ptr, i32 } %45, 1
  store i32 %47, ptr %12, align 4
  call void @__cxa_free_exception(ptr %38) #11
  br label %48

48:                                               ; preds = %44, %40
  call void @_ZNSt7__cxx1112basic_stringIcSt11char_traitsIcESaIcEED1Ev(ptr noundef nonnull align 8 dereferenceable(32) %9) #11
  call void @_ZN5faiss14IndexFlatCodesD2Ev(ptr noundef nonnull align 8 dereferenceable(72) %13) #11
  br label %54

49:                                               ; No predecessors!
  br label %50

50:                                               ; preds = %49
  br label %51

51:                                               ; preds = %50, %24, %21
  br label %52

52:                                               ; preds = %51
  br label %53

53:                                               ; preds = %52
  ret void

54:                                               ; preds = %48
  %55 = load ptr, ptr %11, align 8
  %56 = load i32, ptr %12, align 4
  %57 = insertvalue { ptr, i32 } poison, ptr %55, 0
  %58 = insertvalue { ptr, i32 } %57, i32 %56, 1
  resume { ptr, i32 } %58

59:                                               ; preds = %39
  unreachable
}

; Function Attrs: mustprogress uwtable
define void @_ZN5faiss32IndexProductLocalSearchQuantizerC2EimmmNS_10MetricTypeENS_17AdditiveQuantizer13Search_type_tE(ptr noundef nonnull align 8 dereferenceable(424) %0, i32 noundef %1, i64 noundef %2, i64 noundef %3, i64 noundef %4, i32 noundef %5, i32 noundef %6) unnamed_addr #2 align 2 personality ptr @__gxx_personality_v0 {
  %8 = alloca ptr, align 8
  %9 = alloca i32, align 4
  %10 = alloca i64, align 8
  %11 = alloca i64, align 8
  %12 = alloca i64, align 8
  %13 = alloca i32, align 4
  %14 = alloca i32, align 4
  %15 = alloca ptr, align 8
  %16 = alloca i32, align 4
  store ptr %0, ptr %8, align 8
  store i32 %1, ptr %9, align 4
  store i64 %2, ptr %10, align 8
  store i64 %3, ptr %11, align 8
  store i64 %4, ptr %12, align 8
  store i32 %5, ptr %13, align 4
  store i32 %6, ptr %14, align 4
  %17 = load ptr, ptr %8, align 8
  store ptr getelementptr inbounds ({ [25 x ptr] }, ptr @_ZTVN5faiss32IndexProductLocalSearchQuantizerE, i32 0, i32 0, i32 2), ptr %17, align 8
  %18 = load i32, ptr %9, align 4
  %19 = sext i32 %18 to i64
  %20 = getelementptr inbounds %"struct.faiss::IndexProductLocalSearchQuantizer", ptr %17, i32 0, i32 1
  %21 = load i32, ptr %13, align 4
  call void @_ZN5faiss22IndexAdditiveQuantizerC2ElPNS_17AdditiveQuantizerENS_10MetricTypeE(ptr noundef nonnull align 8 dereferenceable(80) %17, i64 noundef %19, ptr noundef %20, i32 noundef %21)
  store ptr getelementptr inbounds ({ [25 x ptr] }, ptr @_ZTVN5faiss32IndexProductLocalSearchQuantizerE, i32 0, i32 0, i32 2), ptr %17, align 8
  %22 = getelementptr inbounds %"struct.faiss::IndexProductLocalSearchQuantizer", ptr %17, i32 0, i32 1
  %23 = load i32, ptr %9, align 4
  %24 = sext i32 %23 to i64
  %25 = load i64, ptr %10, align 8
  %26 = load i64, ptr %11, align 8
  %27 = load i64, ptr %12, align 8
  %28 = load i32, ptr %14, align 4
  invoke void @_ZN5faiss27ProductLocalSearchQuantizerC1EmmmmNS_17AdditiveQuantizer13Search_type_tE(ptr noundef nonnull align 8 dereferenceable(344) %22, i64 noundef %24, i64 noundef %25, i64 noundef %26, i64 noundef %27, i32 noundef %28)
          to label %29 unwind label %35

29:                                               ; preds = %7
  %30 = getelementptr inbounds %"struct.faiss::IndexProductLocalSearchQuantizer", ptr %17, i32 0, i32 1
  %31 = getelementptr inbounds %"struct.faiss::Quantizer", ptr %30, i32 0, i32 2
  %32 = load i64, ptr %31, align 8
  %33 = getelementptr inbounds %"struct.faiss::IndexFlatCodes", ptr %17, i32 0, i32 1
  store i64 %32, ptr %33, align 8
  %34 = getelementptr inbounds %"struct.faiss::Index", ptr %17, i32 0, i32 5
  store i8 0, ptr %34, align 1
  ret void

35:                                               ; preds = %7
  %36 = landingpad { ptr, i32 }
          cleanup
  %37 = extractvalue { ptr, i32 } %36, 0
  store ptr %37, ptr %15, align 8
  %38 = extractvalue { ptr, i32 } %36, 1
  store i32 %38, ptr %16, align 4
  call void @_ZN5faiss22IndexAdditiveQuantizerD2Ev(ptr noundef nonnull align 8 dereferenceable(80) %17) #11
  br label %39

39:                                               ; preds = %35
  %40 = load ptr, ptr %15, align 8
  %41 = load i32, ptr %16, align 4
  %42 = insertvalue { ptr, i32 } poison, ptr %40, 0
  %43 = insertvalue { ptr, i32 } %42, i32 %41, 1
  resume { ptr, i32 } %43
}

; Function Attrs: mustprogress uwtable
define void @_ZN5faiss32IndexProductLocalSearchQuantizerC2Ev(ptr noundef nonnull align 8 dereferenceable(424) %0) unnamed_addr #2 align 2 {
  %2 = alloca ptr, align 8
  store ptr %0, ptr %2, align 8
  %3 = load ptr, ptr %2, align 8
  call void @_ZN5faiss32IndexProductLocalSearchQuantizerC2EimmmNS_10MetricTypeENS_17AdditiveQuantizer13Search_type_tE(ptr noundef nonnull align 8 dereferenceable(424) %3, i32 noundef 0, i64 noundef 0, i64 noundef 0, i64 noundef 0, i32 noundef 1, i32 noundef 0)
  ret void
}